target datalayout = "e-m:e-p270:32:32-p271:32:32-p272:64:64-i64:64-i128:128-f80:128-n8:16:32:64-S128"
target triple = "x86_64-pc-linux-gnu"

%struct.ldbState = type { ptr, i32, i32, ptr, ptr, ptr, [64 x i32], i32, i32, i32, ptr, i32, i32, ptr, i64, i32 }
%struct.redisServer = type { i32, i64, ptr, ptr, ptr, i32, i32, i32, i32, i32, ptr, ptr, ptr, ptr, ptr, i32, i32, i32, i32, i64, i32, i32, i32, i32, ptr, i32, i32, [41 x i8], i32, i64, i32, i32, i32, ptr, ptr, i32, i32, i64, ptr, ptr, ptr, ptr, [2 x i32], i32, i32, i32, i32, i32, i32, [16 x ptr], i32, ptr, ptr, i32, [8 x %struct.connListener], i32, %struct.connListener, ptr, ptr, ptr, ptr, ptr, ptr, ptr, ptr, ptr, ptr, i32, ptr, i32, ptr, [3 x %struct.pause_event], [256 x i8], ptr, i64, i32, i32, [128 x i32], i32, i32, i64, i32, i32, i32, i32, i32, i64, i64, i64, i64, i64, i64, i64, i64, i64, i64, double, i64, i64, i64, i64, i64, i64, i64, i64, i64, i64, i64, i64, i64, i64, i64, i64, i64, i64, i64, i64, i64, double, i64, i64, i64, i64, i64, ptr, i64, i64, i64, %struct.malloc_stats, i64, i64, i64, i64, i64, i64, i64, i64, i64, i64, i64, i64, double, [4 x i64], i64, i64, i64, i64, [128 x i64], [128 x i64], i64, i64, [7 x %struct.anon], i64, i64, i64, i64, i64, i64, [4 x %struct.durationStats], i32, i32, i32, i32, i32, i32, i32, i32, i32, i32, i32, i32, i64, i32, i32, i32, i32, i64, i64, i32, i32, i32, i32, i32, ptr, [3 x %struct.clientBufferLimitsConfig], i32, i32, i32, ptr, i32, i32, i32, i32, i32, i32, ptr, ptr, i32, i32, i64, i64, i64, i64, i64, i32, i32, ptr, i32, i32, i64, i64, i64, i64, i64, i32, i32, i64, i32, i32, i32, i32, i32, i32, i32, i32, ptr, i32, i64, i64, i64, i64, i32, ptr, i32, ptr, i32, i32, i32, i64, i64, i64, i64, i32, i32, i32, i32, i32, i32, ptr, i32, i32, ptr, i32, i32, i32, [2 x i32], i32, %struct.redisOpArray, i32, ptr, i32, ptr, i32, i32, i32, i32, i32, i32, i32, [41 x i8], [41 x i8], i64, i64, i64, i64, i32, i32, ptr, i64, i64, %struct.replDataBuf, i64, i64, i32, i32, i32, i32, i32, i32, i32, i32, i32, i64, ptr, i64, ptr, ptr, ptr, i32, i32, ptr, ptr, i32, i32, i32, i64, i64, i64, i64, ptr, ptr, i32, ptr, i64, i32, i32, i32, i64, i32, i32, i32, i32, ptr, i32, i32, [41 x i8], i64, i32, ptr, i32, i32, i64, i64, i32, i32, i32, i32, i32, i64, [3 x i32], i32, i32, i32, [10 x i32], ptr, ptr, i32, i64, ptr, ptr, i32, i32, i32, i32, i64, i64, i64, i64, i64, i64, i64, i64, i64, i64, i32, i32, i64, i64, i32, i64, i64, i64, i64, i64, ptr, ptr, i32, ptr, i32, i32, i32, i32, i64, i64, ptr, ptr, i32, i32, i32, i32, i32, ptr, ptr, ptr, i32, i32, i32, i32, i32, i32, i32, i64, i32, i32, i64, i32, i32, i32, i32, i32, i32, i32, i64, ptr, ptr, i64, ptr, i32, %struct.aclInfo, i32, i64, i32, i32, i32, %struct.redisTLSContextConfig, ptr, ptr, ptr, ptr, ptr, i64, i32, ptr, i32, i32, i32, i64, i32, ptr }
%struct.connListener = type { [16 x i32], i32, ptr, i32, i32, ptr, ptr }
%struct.pause_event = type { i32, i64 }
%struct.malloc_stats = type { i64, i64, i64, i64, i64, i64, i64, i64, i64, i64, i64 }
%struct.anon = type { i64, i64, [16 x i64], i32 }
%struct.durationStats = type { i64, i64, i64 }
%struct.clientBufferLimitsConfig = type { i64, i64, i64 }
%struct.redisOpArray = type { ptr, i32, i32 }
%struct.replDataBuf = type { ptr, i64, i64, i64, i64 }
%struct.aclInfo = type { i64, i64, i64, i64 }
%struct.redisTLSContextConfig = type { ptr, ptr, ptr, ptr, ptr, ptr, ptr, ptr, ptr, ptr, ptr, ptr, i32, i32, i32, i32 }
%struct.client = type { i64, i64, ptr, i8, i8, i8, i8, i32, ptr, ptr, ptr, ptr, ptr, i64, i64, i32, ptr, i32, i32, ptr, i64, ptr, ptr, ptr, ptr, ptr, i32, i32, i64, ptr, i64, ptr, i64, i64, i64, i32, ptr, i64, i64, i32, i32, i32, i32, i64, i64, ptr, i64, i64, i64, i64, i64, i64, i64, i64, [41 x i8], i32, ptr, i32, i32, i64, %struct.multiState, %struct.blockingState, i64, ptr, ptr, ptr, ptr, ptr, ptr, ptr, ptr, ptr, ptr, ptr, ptr, ptr, ptr, i64, ptr, i64, i32, ptr, ptr, ptr, i64, %struct.listNode, i64, i64, i32, i64, ptr }
%struct.multiState = type { ptr, i32, i32, i32, i64, i32 }
%struct.blockingState = type { i32, i64, i32, ptr, i32, i32, i64, ptr, ptr, i64 }
%struct.listNode = type { ptr, ptr, ptr }

@ldb = dso_local global %struct.ldbState zeroinitializer, align 8
@server = external global %struct.redisServer, align 8
@.str.68 = private unnamed_addr constant [13 x i8] c"<endsession>\00", align 1
@.str.69 = private unnamed_addr constant [36 x i8] c"Lua debugging session child exiting\00", align 1
@.str.70 = private unnamed_addr constant [47 x i8] c"Redis synchronous debugging eval session ended\00", align 1

; Function Attrs: nounwind uwtable
define dso_local void @ldbLog(ptr noundef %0) #0 {
  %2 = alloca ptr, align 8
  store ptr %0, ptr %2, align 8, !tbaa !16
  %3 = load ptr, ptr getelementptr inbounds nuw (%struct.ldbState, ptr @ldb, i32 0, i32 3), align 8, !tbaa !34
  %4 = load ptr, ptr %2, align 8, !tbaa !16
  %5 = call ptr @listAddNodeTail(ptr noundef %3, ptr noundef %4)
  ret void
}

; Function Attrs: nounwind uwtable
define dso_local void @ldbEndSession(ptr noundef %0) #0 {
  %2 = alloca ptr, align 8
  store ptr %0, ptr %2, align 8, !tbaa !110
  %3 = call ptr @sdsnew(ptr noundef @.str.68)
  call void @ldbLog(ptr noundef %3)
  call void @ldbSendLogs()
  %4 = load i32, ptr getelementptr inbounds nuw (%struct.ldbState, ptr @ldb, i32 0, i32 2), align 4, !tbaa !163
  %5 = icmp ne i32 %4, 0
  br i1 %5, label %6, label %15

6:                                                ; preds = %1
  %7 = load ptr, ptr %2, align 8, !tbaa !110
  %8 = call i32 @writeToClient(ptr noundef %7, i32 noundef 0)
  br label %9

9:                                                ; preds = %6
  %10 = load i32, ptr getelementptr inbounds nuw (%struct.redisServer, ptr @server, i32 0, i32 159), align 8, !tbaa !60
  %11 = icmp slt i32 2, %10
  br i1 %11, label %12, label %13

12:                                               ; preds = %9
  br label %14

13:                                               ; preds = %9
  call void (i32, ptr, ...) @_serverLog(i32 noundef 2, ptr noundef @.str.69)
  br label %14

14:                                               ; preds = %13, %12
  call void @exitFromChild(i32 noundef 0)
  br label %22

15:                                               ; preds = %1
  br label %16

16:                                               ; preds = %15
  %17 = load i32, ptr getelementptr inbounds nuw (%struct.redisServer, ptr @server, i32 0, i32 159), align 8, !tbaa !60
  %18 = icmp slt i32 2, %17
  br i1 %18, label %19, label %20

19:                                               ; preds = %16
  br label %21

20:                                               ; preds = %16
  call void (i32, ptr, ...) @_serverLog(i32 noundef 2, ptr noundef @.str.70)
  br label %21

21:                                               ; preds = %20, %19
  br label %22

22:                                               ; preds = %21, %14
  %23 = load ptr, ptr @ldb, align 8, !tbaa !74
  %24 = call i32 @connNonBlock(ptr noundef %23)
  %25 = load ptr, ptr @ldb, align 8, !tbaa !74
  %26 = call i32 @connSendTimeout(ptr noundef %25, i64 noundef 0)
  %27 = load ptr, ptr %2, align 8, !tbaa !110
  %28 = getelementptr inbounds nuw %struct.client, ptr %27, i32 0, i32 1
  %29 = load i64, ptr %28, align 8, !tbaa !64
  %30 = or i64 %29, 64
  store i64 %30, ptr %28, align 8, !tbaa !64
  %31 = load ptr, ptr getelementptr inbounds nuw (%struct.ldbState, ptr @ldb, i32 0, i32 10), align 8, !tbaa !78
  %32 = load i32, ptr getelementptr inbounds nuw (%struct.ldbState, ptr @ldb, i32 0, i32 11), align 8, !tbaa !79
  call void @sdsfreesplitres(ptr noundef %31, i32 noundef %32)
  store i32 0, ptr getelementptr inbounds nuw (%struct.ldbState, ptr @ldb, i32 0, i32 11), align 8, !tbaa !79
  store i32 0, ptr getelementptr inbounds nuw (%struct.ldbState, ptr @ldb, i32 0, i32 1), align 8, !tbaa !26
  ret void
}