; Function Attrs: nounwind uwtable
define dso_local void @ldbEndSession(ptr noundef %0) local_unnamed_addr #0 {
  %2 = tail call ptr @sdsnew(ptr noundef nonnull @.str.68) #19
  %3 = load ptr, ptr getelementptr inbounds nuw (i8, ptr @ldb, i64 16), align 8, !tbaa !26
  %4 = tail call ptr @listAddNodeTail(ptr noundef %3, ptr noundef %2) #19
  tail call void @ldbSendLogs()
  %5 = load i32, ptr getelementptr inbounds nuw (i8, ptr @ldb, i64 12), align 4, !tbaa !148
  %.not = icmp eq i32 %5, 0
  br i1 %.not, label %12, label %6

6:                                                ; preds = %1
  %7 = tail call i32 @writeToClient(ptr noundef %0, i32 noundef 0) #19
  %8 = load i32, ptr getelementptr inbounds nuw (i8, ptr @server, i64 6288), align 8, !tbaa !61
  %9 = icmp sgt i32 %8, 2
  br i1 %9, label %11, label %10

10:                                               ; preds = %6
  tail call void (i32, ptr, ...) @_serverLog(i32 noundef 2, ptr noundef nonnull @.str.69) #19
  br label %11

11:                                               ; preds = %6, %10
  tail call void @exitFromChild(i32 noundef 0) #19
  br label %16

12:                                               ; preds = %1
  %13 = load i32, ptr getelementptr inbounds nuw (i8, ptr @server, i64 6288), align 8, !tbaa !61
  %14 = icmp sgt i32 %13, 2
  br i1 %14, label %16, label %15

15:                                               ; preds = %12
  tail call void (i32, ptr, ...) @_serverLog(i32 noundef 2, ptr noundef nonnull @.str.70) #19
  br label %16

16:                                               ; preds = %15, %12, %11
  %17 = load ptr, ptr @ldb, align 8, !tbaa !54
  %18 = tail call i32 @connNonBlock(ptr noundef %17) #19
  %19 = load ptr, ptr @ldb, align 8, !tbaa !54
  %20 = tail call i32 @connSendTimeout(ptr noundef %19, i64 noundef 0) #19
  %21 = getelementptr inbounds nuw i8, ptr %0, i64 8
  %22 = load i64, ptr %21, align 8, !tbaa !65
  %23 = or i64 %22, 64
  store i64 %23, ptr %21, align 8, !tbaa !65
  %24 = load ptr, ptr getelementptr inbounds nuw (i8, ptr @ldb, i64 312), align 8, !tbaa !58
  %25 = load i32, ptr getelementptr inbounds nuw (i8, ptr @ldb, i64 320), align 8, !tbaa !59
  tail call void @sdsfreesplitres(ptr noundef %24, i32 noundef %25) #19
  store i32 0, ptr getelementptr inbounds nuw (i8, ptr @ldb, i64 320), align 8, !tbaa !59
  store i32 0, ptr getelementptr inbounds nuw (i8, ptr @ldb, i64 8), align 8, !tbaa !16
  ret void
}